; Function Attrs: nounwind sspstrong uwtable
define internal fastcc i64 @string_to_r_strict(i64 noundef %0, i32 noundef %1) unnamed_addr #0 {
  tail call void @rb_must_asciicompat(i64 noundef %0) #17
  %3 = inttoptr i64 %0 to ptr
  %4 = load i64, ptr %3, align 8, !tbaa !7, !noalias !50
  %5 = and i64 %4, 8192
  %.not.i.i = icmp eq i64 %5, 0
  %6 = getelementptr inbounds nuw i8, ptr %3, i64 24
  br i1 %.not.i.i, label %RSTRING_END.exit, label %7

7:                                                ; preds = %2
  %.sroa.2.0.copyload.i = load ptr, ptr %6, align 8
  br label %RSTRING_END.exit

RSTRING_END.exit:                                 ; preds = %2, %7
  %.sroa.5.0.i = phi ptr [ %.sroa.2.0.copyload.i, %7 ], [ %6, %2 ]
  %.sroa.3.0.in.i = getelementptr inbounds nuw i8, ptr %3, i64 16
  %.sroa.3.0.i = load i64, ptr %.sroa.3.0.in.i, align 8, !tbaa !18
  %8 = getelementptr i8, ptr %.sroa.5.0.i, i64 %.sroa.3.0.i
  %9 = tail call fastcc i64 @parse_rat(ptr noundef %.sroa.5.0.i, ptr noundef %8, i32 noundef 1, i32 noundef %1)
  %10 = icmp eq i64 %9, 4
  br i1 %10, label %11, label %14

11:                                               ; preds = %RSTRING_END.exit
  %.not12 = icmp eq i32 %1, 0
  br i1 %.not12, label %RB_FLOAT_TYPE_P.exit.thread17, label %12

12:                                               ; preds = %11
  %13 = load i64, ptr @rb_eArgError, align 8, !tbaa !18
  tail call void (i64, ptr, ...) @rb_raise(i64 noundef %13, ptr noundef nonnull @.str.49, i64 noundef %0) #20
  unreachable

14:                                               ; preds = %RSTRING_END.exit
  %15 = and i64 %9, 3
  %16 = icmp eq i64 %15, 2
  br i1 %16, label %26, label %17

17:                                               ; preds = %14
  %18 = icmp eq i64 %9, 0
  %19 = and i64 %9, 7
  %20 = icmp ne i64 %19, 0
  %21 = or i1 %18, %20
  br i1 %21, label %RB_FLOAT_TYPE_P.exit.thread17, label %RB_FLOAT_TYPE_P.exit

RB_FLOAT_TYPE_P.exit:                             ; preds = %17
  %22 = inttoptr i64 %9 to ptr
  %23 = load i64, ptr %22, align 8, !tbaa !7
  %24 = and i64 %23, 31
  %25 = icmp eq i64 %24, 4
  br i1 %25, label %33, label %RB_FLOAT_TYPE_P.exit.thread17

26:                                               ; preds = %14
  %.not.i.i.i = icmp eq i64 %9, -9223372036854775806
  br i1 %.not.i.i.i, label %RB_FLOAT_TYPE_P.exit.thread17, label %27

27:                                               ; preds = %26
  %.neg.i.i.i = ashr i64 %9, 63
  %28 = add nsw i64 %.neg.i.i.i, 2
  %29 = and i64 %9, -4
  %30 = or i64 %28, %29
  %31 = tail call noundef i64 @llvm.fshl.i64(i64 range(i64 1, 0) %30, i64 range(i64 1, 0) %30, i64 61)
  %32 = bitcast i64 %31 to double
  br label %FLOAT_ZERO_P.exit

33:                                               ; preds = %RB_FLOAT_TYPE_P.exit
  %34 = getelementptr inbounds nuw i8, ptr %22, i64 16
  %35 = load double, ptr %34, align 8, !tbaa !22
  br label %FLOAT_ZERO_P.exit

FLOAT_ZERO_P.exit:                                ; preds = %27, %33
  %.0.i.i = phi double [ %35, %33 ], [ %32, %27 ]
  %36 = fcmp oeq double %.0.i.i, 0.000000e+00
  br i1 %36, label %RB_FLOAT_TYPE_P.exit.thread17, label %37

37:                                               ; preds = %FLOAT_ZERO_P.exit
  %.not = icmp eq i32 %1, 0
  br i1 %.not, label %RB_FLOAT_TYPE_P.exit.thread17, label %38

38:                                               ; preds = %37
  %39 = load i64, ptr @rb_eFloatDomainError, align 8, !tbaa !18
  tail call void (i64, ptr, ...) @rb_raise(i64 noundef %39, ptr noundef nonnull @.str.4) #20
  unreachable

RB_FLOAT_TYPE_P.exit.thread17:                    ; preds = %26, %17, %RB_FLOAT_TYPE_P.exit, %FLOAT_ZERO_P.exit, %37, %11
  %.0 = phi i64 [ 4, %11 ], [ 4, %37 ], [ %9, %FLOAT_ZERO_P.exit ], [ %9, %RB_FLOAT_TYPE_P.exit ], [ %9, %17 ], [ -9223372036854775806, %26 ]
  ret i64 %.0
}